target datalayout = "e-m:e-p270:32:32-p271:32:32-p272:64:64-i64:64-i128:128-f80:128-n8:16:32:64-S128"
target triple = "x86_64-pc-linux-gnu"

%"class.std::__cxx11::basic_string" = type { %"struct.std::__cxx11::basic_string<char>::_Alloc_hider", i64, %union.anon }
%"struct.std::__cxx11::basic_string<char>::_Alloc_hider" = type { ptr }
%union.anon = type { i64, [8 x i8] }
%"struct.igl::tinyply::PlyProperty" = type { %"class.std::__cxx11::basic_string", i8, i8, i8, i64 }
%"struct.igl::tinyply::PlyElement" = type { %"class.std::__cxx11::basic_string", i64, %"class.std::vector" }
%"class.std::vector" = type { %"struct.std::_Vector_base" }
%"struct.std::_Vector_base" = type { %"struct.std::_Vector_base<igl::tinyply::PlyProperty, std::allocator<igl::tinyply::PlyProperty>>::_Vector_impl" }
%"struct.std::_Vector_base<igl::tinyply::PlyProperty, std::allocator<igl::tinyply::PlyProperty>>::_Vector_impl" = type { %"struct.std::_Vector_base<igl::tinyply::PlyProperty, std::allocator<igl::tinyply::PlyProperty>>::_Vector_impl_data" }
%"struct.std::_Vector_base<igl::tinyply::PlyProperty, std::allocator<igl::tinyply::PlyProperty>>::_Vector_impl_data" = type { ptr, ptr, ptr }
%"struct.std::_Vector_base.12" = type { %"struct.std::_Vector_base<igl::tinyply::PlyElement, std::allocator<igl::tinyply::PlyElement>>::_Vector_impl" }
%"struct.std::_Vector_base<igl::tinyply::PlyElement, std::allocator<igl::tinyply::PlyElement>>::_Vector_impl" = type { %"struct.std::_Vector_base<igl::tinyply::PlyElement, std::allocator<igl::tinyply::PlyElement>>::_Vector_impl_data" }
%"struct.std::_Vector_base<igl::tinyply::PlyElement, std::allocator<igl::tinyply::PlyElement>>::_Vector_impl_data" = type { ptr, ptr, ptr }
%"class.__gnu_cxx::__normal_iterator.32" = type { ptr }
%"class.__gnu_cxx::__normal_iterator.38" = type { ptr }
%"struct.igl::tinyply::PlyFile::PlyFileImpl" = type { %"class.std::unordered_map", i8, i8, %"class.std::vector.11", %"class.std::vector.27", %"class.std::vector.27", [64 x i8] }
%"class.std::unordered_map" = type { %"class.std::_Hashtable" }
%"class.std::_Hashtable" = type { ptr, i64, %"struct.std::__detail::_Hash_node_base", i64, %"struct.std::__detail::_Prime_rehash_policy", ptr }
%"struct.std::__detail::_Hash_node_base" = type { ptr }
%"struct.std::__detail::_Prime_rehash_policy" = type { float, i64 }
%"class.std::vector.11" = type { %"struct.std::_Vector_base.12" }
%"class.std::vector.27" = type { %"struct.std::_Vector_base.28" }
%"struct.std::_Vector_base.28" = type { %"struct.std::_Vector_base<std::__cxx11::basic_string<char>, std::allocator<std::__cxx11::basic_string<char>>>::_Vector_impl" }
%"struct.std::_Vector_base<std::__cxx11::basic_string<char>, std::allocator<std::__cxx11::basic_string<char>>>::_Vector_impl" = type { %"struct.std::_Vector_base<std::__cxx11::basic_string<char>, std::allocator<std::__cxx11::basic_string<char>>>::_Vector_impl_data" }
%"struct.std::_Vector_base<std::__cxx11::basic_string<char>, std::allocator<std::__cxx11::basic_string<char>>>::_Vector_impl_data" = type { ptr, ptr, ptr }

@.str.29 = private unnamed_addr constant [39 x i8] c"no elements defined; file is malformed\00", align 1
@_ZTISt13runtime_error = external constant ptr
@_ZN3igl7tinyply11PlyPropertyC1ERSi = dso_local unnamed_addr alias void (ptr, ptr), ptr @_ZN3igl7tinyply11PlyPropertyC2ERSi

; Function Attrs: mustprogress nounwind uwtable
define linkonce_odr dso_local noundef nonnull align 8 dereferenceable(48) ptr @_ZNK9__gnu_cxx17__normal_iteratorIPN3igl7tinyply11PlyPropertyESt6vectorIS3_SaIS3_EEEdeEv(ptr noundef nonnull align 8 dereferenceable(8) %0) #4 comdat align 2 {
  %2 = alloca ptr, align 8
  store ptr %0, ptr %2, align 8, !tbaa !104
  %3 = load ptr, ptr %2, align 8
  %4 = getelementptr inbounds nuw %"class.__gnu_cxx::__normal_iterator.38", ptr %3, i32 0, i32 0
  %5 = load ptr, ptr %4, align 8, !tbaa !106
  ret ptr %5
}

; Function Attrs: mustprogress nounwind uwtable
define linkonce_odr dso_local ptr @_ZNK9__gnu_cxx17__normal_iteratorIPN3igl7tinyply11PlyPropertyESt6vectorIS3_SaIS3_EEEmiEl(ptr noundef nonnull align 8 dereferenceable(8) %0, i64 noundef %1) #4 comdat align 2 {
  %3 = alloca %"class.__gnu_cxx::__normal_iterator.38", align 8
  %4 = alloca ptr, align 8
  %5 = alloca i64, align 8
  %6 = alloca ptr, align 8
  store ptr %0, ptr %4, align 8, !tbaa !104
  store i64 %1, ptr %5, align 8, !tbaa !50
  %7 = load ptr, ptr %4, align 8
  call void @llvm.lifetime.start.p0(i64 8, ptr %6) #6
  %8 = getelementptr inbounds nuw %"class.__gnu_cxx::__normal_iterator.38", ptr %7, i32 0, i32 0
  %9 = load ptr, ptr %8, align 8, !tbaa !106
  %10 = load i64, ptr %5, align 8, !tbaa !50
  %11 = sub i64 0, %10
  %12 = getelementptr inbounds %"struct.igl::tinyply::PlyProperty", ptr %9, i64 %11
  store ptr %12, ptr %6, align 8, !tbaa !56
  call void @_ZN9__gnu_cxx17__normal_iteratorIPN3igl7tinyply11PlyPropertyESt6vectorIS3_SaIS3_EEEC2ERKS4_(ptr noundef nonnull align 8 dereferenceable(8) %3, ptr noundef nonnull align 8 dereferenceable(8) %6) #6
  call void @llvm.lifetime.end.p0(i64 8, ptr %6) #6
  %13 = getelementptr inbounds nuw %"class.__gnu_cxx::__normal_iterator.38", ptr %3, i32 0, i32 0
  %14 = load ptr, ptr %13, align 8
  ret ptr %14
}

; Function Attrs: mustprogress nounwind uwtable
define linkonce_odr dso_local void @_ZN9__gnu_cxx17__normal_iteratorIPN3igl7tinyply11PlyPropertyESt6vectorIS3_SaIS3_EEEC2ERKS4_(ptr noundef nonnull align 8 dereferenceable(8) %0, ptr noundef nonnull align 8 dereferenceable(8) %1) unnamed_addr #4 comdat align 2 {
  %3 = alloca ptr, align 8
  %4 = alloca ptr, align 8
  store ptr %0, ptr %3, align 8, !tbaa !104
  store ptr %1, ptr %4, align 8, !tbaa !574
  %5 = load ptr, ptr %3, align 8
  %6 = getelementptr inbounds nuw %"class.__gnu_cxx::__normal_iterator.38", ptr %5, i32 0, i32 0
  %7 = load ptr, ptr %4, align 8, !tbaa !574
  %8 = load ptr, ptr %7, align 8, !tbaa !56
  store ptr %8, ptr %6, align 8, !tbaa !106
  ret void
}

; Function Attrs: alwaysinline mustprogress uwtable
define linkonce_odr dso_local void @_ZNSt15__new_allocatorIN3igl7tinyply11PlyPropertyEE9constructIS2_JRSiEEEvPT_DpOT0_(ptr noundef nonnull align 1 dereferenceable(1) %0, ptr noundef %1, ptr noundef nonnull align 8 dereferenceable(16) %2) #14 comdat align 2 {
  %4 = alloca ptr, align 8
  %5 = alloca ptr, align 8
  %6 = alloca ptr, align 8
  store ptr %0, ptr %4, align 8, !tbaa !345
  store ptr %1, ptr %5, align 8, !tbaa !56
  store ptr %2, ptr %6, align 8, !tbaa !58
  %7 = load ptr, ptr %5, align 8, !tbaa !56
  %8 = load ptr, ptr %6, align 8, !tbaa !58
  call void @_ZN3igl7tinyply11PlyPropertyC1ERSi(ptr noundef nonnull align 8 dereferenceable(48) %7, ptr noundef nonnull align 8 dereferenceable(16) %8)
  ret void
}

; Function Attrs: mustprogress nounwind uwtable
define linkonce_odr dso_local void @_ZN9__gnu_cxx17__normal_iteratorIPN3igl7tinyply10PlyElementESt6vectorIS3_SaIS3_EEEC2ERKS4_(ptr noundef nonnull align 8 dereferenceable(8) %0, ptr noundef nonnull align 8 dereferenceable(8) %1) unnamed_addr #4 comdat align 2 {
  %3 = alloca ptr, align 8
  %4 = alloca ptr, align 8
  store ptr %0, ptr %3, align 8, !tbaa !98
  store ptr %1, ptr %4, align 8, !tbaa !572
  %5 = load ptr, ptr %3, align 8
  %6 = getelementptr inbounds nuw %"class.__gnu_cxx::__normal_iterator.32", ptr %5, i32 0, i32 0
  %7 = load ptr, ptr %4, align 8, !tbaa !572
  %8 = load ptr, ptr %7, align 8, !tbaa !66
  store ptr %8, ptr %6, align 8, !tbaa !100
  ret void
}

; Function Attrs: mustprogress nounwind uwtable
define linkonce_odr dso_local noundef nonnull align 8 dereferenceable(48) ptr @_ZNSt6vectorIN3igl7tinyply11PlyPropertyESaIS2_EE4backEv(ptr noundef nonnull align 8 dereferenceable(24) %0) #4 comdat align 2 {
  %2 = alloca ptr, align 8
  %3 = alloca %"class.__gnu_cxx::__normal_iterator.38", align 8
  %4 = alloca %"class.__gnu_cxx::__normal_iterator.38", align 8
  store ptr %0, ptr %2, align 8, !tbaa !74
  %5 = load ptr, ptr %2, align 8
  call void @llvm.lifetime.start.p0(i64 8, ptr %3) #6
  call void @llvm.lifetime.start.p0(i64 8, ptr %4) #6
  %6 = call ptr @_ZNSt6vectorIN3igl7tinyply11PlyPropertyESaIS2_EE3endEv(ptr noundef nonnull align 8 dereferenceable(24) %5) #6
  %7 = getelementptr inbounds nuw %"class.__gnu_cxx::__normal_iterator.38", ptr %4, i32 0, i32 0
  store ptr %6, ptr %7, align 8
  %8 = call ptr @_ZNK9__gnu_cxx17__normal_iteratorIPN3igl7tinyply11PlyPropertyESt6vectorIS3_SaIS3_EEEmiEl(ptr noundef nonnull align 8 dereferenceable(8) %4, i64 noundef 1) #6
  %9 = getelementptr inbounds nuw %"class.__gnu_cxx::__normal_iterator.38", ptr %3, i32 0, i32 0
  store ptr %8, ptr %9, align 8
  %10 = call noundef nonnull align 8 dereferenceable(48) ptr @_ZNK9__gnu_cxx17__normal_iteratorIPN3igl7tinyply11PlyPropertyESt6vectorIS3_SaIS3_EEEdeEv(ptr noundef nonnull align 8 dereferenceable(8) %3) #6
  call void @llvm.lifetime.end.p0(i64 8, ptr %4) #6
  call void @llvm.lifetime.end.p0(i64 8, ptr %3) #6
  ret ptr %10
}

; Function Attrs: mustprogress nounwind uwtable
define linkonce_odr dso_local ptr @_ZNSt6vectorIN3igl7tinyply11PlyPropertyESaIS2_EE3endEv(ptr noundef nonnull align 8 dereferenceable(24) %0) #4 comdat align 2 {
  %2 = alloca %"class.__gnu_cxx::__normal_iterator.38", align 8
  %3 = alloca ptr, align 8
  store ptr %0, ptr %3, align 8, !tbaa !74
  %4 = load ptr, ptr %3, align 8
  %5 = getelementptr inbounds nuw %"struct.std::_Vector_base", ptr %4, i32 0, i32 0
  %6 = getelementptr inbounds nuw %"struct.std::_Vector_base<igl::tinyply::PlyProperty, std::allocator<igl::tinyply::PlyProperty>>::_Vector_impl_data", ptr %5, i32 0, i32 1
  call void @_ZN9__gnu_cxx17__normal_iteratorIPN3igl7tinyply11PlyPropertyESt6vectorIS3_SaIS3_EEEC2ERKS4_(ptr noundef nonnull align 8 dereferenceable(8) %2, ptr noundef nonnull align 8 dereferenceable(8) %6) #6
  %7 = getelementptr inbounds nuw %"class.__gnu_cxx::__normal_iterator.38", ptr %2, i32 0, i32 0
  %8 = load ptr, ptr %7, align 8
  ret ptr %8
}

; Function Attrs: alwaysinline mustprogress uwtable
define linkonce_odr dso_local void @_ZNSt16allocator_traitsISaIN3igl7tinyply11PlyPropertyEEE9constructIS2_JRSiEEEvRS3_PT_DpOT0_(ptr noundef nonnull align 1 dereferenceable(1) %0, ptr noundef %1, ptr noundef nonnull align 8 dereferenceable(16) %2) #14 comdat align 2 {
  %4 = alloca ptr, align 8
  %5 = alloca ptr, align 8
  %6 = alloca ptr, align 8
  store ptr %0, ptr %4, align 8, !tbaa !341
  store ptr %1, ptr %5, align 8, !tbaa !56
  store ptr %2, ptr %6, align 8, !tbaa !58
  %7 = load ptr, ptr %4, align 8, !tbaa !341
  %8 = load ptr, ptr %5, align 8, !tbaa !56
  %9 = load ptr, ptr %6, align 8, !tbaa !58
  call void @_ZNSt15__new_allocatorIN3igl7tinyply11PlyPropertyEE9constructIS2_JRSiEEEvPT_DpOT0_(ptr noundef nonnull align 1 dereferenceable(1) %7, ptr noundef %8, ptr noundef nonnull align 8 dereferenceable(16) %9)
  ret void
}

; Function Attrs: mustprogress nounwind uwtable
define linkonce_odr dso_local noundef nonnull align 8 dereferenceable(64) ptr @_ZNK9__gnu_cxx17__normal_iteratorIPN3igl7tinyply10PlyElementESt6vectorIS3_SaIS3_EEEdeEv(ptr noundef nonnull align 8 dereferenceable(8) %0) #4 comdat align 2 {
  %2 = alloca ptr, align 8
  store ptr %0, ptr %2, align 8, !tbaa !98
  %3 = load ptr, ptr %2, align 8
  %4 = getelementptr inbounds nuw %"class.__gnu_cxx::__normal_iterator.32", ptr %3, i32 0, i32 0
  %5 = load ptr, ptr %4, align 8, !tbaa !100
  ret ptr %5
}

; Function Attrs: mustprogress nounwind uwtable
define linkonce_odr dso_local ptr @_ZNK9__gnu_cxx17__normal_iteratorIPN3igl7tinyply10PlyElementESt6vectorIS3_SaIS3_EEEmiEl(ptr noundef nonnull align 8 dereferenceable(8) %0, i64 noundef %1) #4 comdat align 2 {
  %3 = alloca %"class.__gnu_cxx::__normal_iterator.32", align 8
  %4 = alloca ptr, align 8
  %5 = alloca i64, align 8
  %6 = alloca ptr, align 8
  store ptr %0, ptr %4, align 8, !tbaa !98
  store i64 %1, ptr %5, align 8, !tbaa !50
  %7 = load ptr, ptr %4, align 8
  call void @llvm.lifetime.start.p0(i64 8, ptr %6) #6
  %8 = getelementptr inbounds nuw %"class.__gnu_cxx::__normal_iterator.32", ptr %7, i32 0, i32 0
  %9 = load ptr, ptr %8, align 8, !tbaa !100
  %10 = load i64, ptr %5, align 8, !tbaa !50
  %11 = sub i64 0, %10
  %12 = getelementptr inbounds %"struct.igl::tinyply::PlyElement", ptr %9, i64 %11
  store ptr %12, ptr %6, align 8, !tbaa !66
  call void @_ZN9__gnu_cxx17__normal_iteratorIPN3igl7tinyply10PlyElementESt6vectorIS3_SaIS3_EEEC2ERKS4_(ptr noundef nonnull align 8 dereferenceable(8) %3, ptr noundef nonnull align 8 dereferenceable(8) %6) #6
  call void @llvm.lifetime.end.p0(i64 8, ptr %6) #6
  %13 = getelementptr inbounds nuw %"class.__gnu_cxx::__normal_iterator.32", ptr %3, i32 0, i32 0
  %14 = load ptr, ptr %13, align 8
  ret ptr %14
}

; Function Attrs: mustprogress nounwind uwtable
define linkonce_odr dso_local ptr @_ZNSt6vectorIN3igl7tinyply10PlyElementESaIS2_EE3endEv(ptr noundef nonnull align 8 dereferenceable(24) %0) #4 comdat align 2 {
  %2 = alloca %"class.__gnu_cxx::__normal_iterator.32", align 8
  %3 = alloca ptr, align 8
  store ptr %0, ptr %3, align 8, !tbaa !78
  %4 = load ptr, ptr %3, align 8
  %5 = getelementptr inbounds nuw %"struct.std::_Vector_base.12", ptr %4, i32 0, i32 0
  %6 = getelementptr inbounds nuw %"struct.std::_Vector_base<igl::tinyply::PlyElement, std::allocator<igl::tinyply::PlyElement>>::_Vector_impl_data", ptr %5, i32 0, i32 1
  call void @_ZN9__gnu_cxx17__normal_iteratorIPN3igl7tinyply10PlyElementESt6vectorIS3_SaIS3_EEEC2ERKS4_(ptr noundef nonnull align 8 dereferenceable(8) %2, ptr noundef nonnull align 8 dereferenceable(8) %6) #6
  %7 = getelementptr inbounds nuw %"class.__gnu_cxx::__normal_iterator.32", ptr %2, i32 0, i32 0
  %8 = load ptr, ptr %7, align 8
  ret ptr %8
}

; Function Attrs: mustprogress uwtable
define linkonce_odr dso_local noundef nonnull align 8 dereferenceable(48) ptr @_ZNSt6vectorIN3igl7tinyply11PlyPropertyESaIS2_EE12emplace_backIJRSiEEERS2_DpOT_(ptr noundef nonnull align 8 dereferenceable(24) %0, ptr noundef nonnull align 8 dereferenceable(16) %1) #3 comdat align 2 {
  %3 = alloca ptr, align 8
  %4 = alloca ptr, align 8
  %5 = alloca %"class.__gnu_cxx::__normal_iterator.38", align 8
  store ptr %0, ptr %3, align 8, !tbaa !74
  store ptr %1, ptr %4, align 8, !tbaa !58
  %6 = load ptr, ptr %3, align 8
  %7 = getelementptr inbounds nuw %"struct.std::_Vector_base", ptr %6, i32 0, i32 0
  %8 = getelementptr inbounds nuw %"struct.std::_Vector_base<igl::tinyply::PlyProperty, std::allocator<igl::tinyply::PlyProperty>>::_Vector_impl_data", ptr %7, i32 0, i32 1
  %9 = load ptr, ptr %8, align 8, !tbaa !77
  %10 = getelementptr inbounds nuw %"struct.std::_Vector_base", ptr %6, i32 0, i32 0
  %11 = getelementptr inbounds nuw %"struct.std::_Vector_base<igl::tinyply::PlyProperty, std::allocator<igl::tinyply::PlyProperty>>::_Vector_impl_data", ptr %10, i32 0, i32 2
  %12 = load ptr, ptr %11, align 8, !tbaa !163
  %13 = icmp ne ptr %9, %12
  br i1 %13, label %14, label %24

14:                                               ; preds = %2
  %15 = getelementptr inbounds nuw %"struct.std::_Vector_base", ptr %6, i32 0, i32 0
  %16 = getelementptr inbounds nuw %"struct.std::_Vector_base", ptr %6, i32 0, i32 0
  %17 = getelementptr inbounds nuw %"struct.std::_Vector_base<igl::tinyply::PlyProperty, std::allocator<igl::tinyply::PlyProperty>>::_Vector_impl_data", ptr %16, i32 0, i32 1
  %18 = load ptr, ptr %17, align 8, !tbaa !77
  %19 = load ptr, ptr %4, align 8, !tbaa !58
  call void @_ZNSt16allocator_traitsISaIN3igl7tinyply11PlyPropertyEEE9constructIS2_JRSiEEEvRS3_PT_DpOT0_(ptr noundef nonnull align 1 dereferenceable(1) %15, ptr noundef %18, ptr noundef nonnull align 8 dereferenceable(16) %19)
  %20 = getelementptr inbounds nuw %"struct.std::_Vector_base", ptr %6, i32 0, i32 0
  %21 = getelementptr inbounds nuw %"struct.std::_Vector_base<igl::tinyply::PlyProperty, std::allocator<igl::tinyply::PlyProperty>>::_Vector_impl_data", ptr %20, i32 0, i32 1
  %22 = load ptr, ptr %21, align 8, !tbaa !77
  %23 = getelementptr inbounds nuw %"struct.igl::tinyply::PlyProperty", ptr %22, i32 1
  store ptr %23, ptr %21, align 8, !tbaa !77
  br label %30

24:                                               ; preds = %2
  %25 = call ptr @_ZNSt6vectorIN3igl7tinyply11PlyPropertyESaIS2_EE3endEv(ptr noundef nonnull align 8 dereferenceable(24) %6) #6
  %26 = getelementptr inbounds nuw %"class.__gnu_cxx::__normal_iterator.38", ptr %5, i32 0, i32 0
  store ptr %25, ptr %26, align 8
  %27 = load ptr, ptr %4, align 8, !tbaa !58
  %28 = getelementptr inbounds nuw %"class.__gnu_cxx::__normal_iterator.38", ptr %5, i32 0, i32 0
  %29 = load ptr, ptr %28, align 8
  call void @_ZNSt6vectorIN3igl7tinyply11PlyPropertyESaIS2_EE17_M_realloc_insertIJRSiEEEvN9__gnu_cxx17__normal_iteratorIPS2_S4_EEDpOT_(ptr noundef nonnull align 8 dereferenceable(24) %6, ptr %29, ptr noundef nonnull align 8 dereferenceable(16) %27)
  br label %30

30:                                               ; preds = %24, %14
  %31 = call noundef nonnull align 8 dereferenceable(48) ptr @_ZNSt6vectorIN3igl7tinyply11PlyPropertyESaIS2_EE4backEv(ptr noundef nonnull align 8 dereferenceable(24) %6) #6
  ret ptr %31
}

; Function Attrs: mustprogress nounwind uwtable
define linkonce_odr dso_local noundef nonnull align 8 dereferenceable(64) ptr @_ZNSt6vectorIN3igl7tinyply10PlyElementESaIS2_EE4backEv(ptr noundef nonnull align 8 dereferenceable(24) %0) #4 comdat align 2 {
  %2 = alloca ptr, align 8
  %3 = alloca %"class.__gnu_cxx::__normal_iterator.32", align 8
  %4 = alloca %"class.__gnu_cxx::__normal_iterator.32", align 8
  store ptr %0, ptr %2, align 8, !tbaa !78
  %5 = load ptr, ptr %2, align 8
  call void @llvm.lifetime.start.p0(i64 8, ptr %3) #6
  call void @llvm.lifetime.start.p0(i64 8, ptr %4) #6
  %6 = call ptr @_ZNSt6vectorIN3igl7tinyply10PlyElementESaIS2_EE3endEv(ptr noundef nonnull align 8 dereferenceable(24) %5) #6
  %7 = getelementptr inbounds nuw %"class.__gnu_cxx::__normal_iterator.32", ptr %4, i32 0, i32 0
  store ptr %6, ptr %7, align 8
  %8 = call ptr @_ZNK9__gnu_cxx17__normal_iteratorIPN3igl7tinyply10PlyElementESt6vectorIS3_SaIS3_EEEmiEl(ptr noundef nonnull align 8 dereferenceable(8) %4, i64 noundef 1) #6
  %9 = getelementptr inbounds nuw %"class.__gnu_cxx::__normal_iterator.32", ptr %3, i32 0, i32 0
  store ptr %8, ptr %9, align 8
  %10 = call noundef nonnull align 8 dereferenceable(64) ptr @_ZNK9__gnu_cxx17__normal_iteratorIPN3igl7tinyply10PlyElementESt6vectorIS3_SaIS3_EEEdeEv(ptr noundef nonnull align 8 dereferenceable(8) %3) #6
  call void @llvm.lifetime.end.p0(i64 8, ptr %4) #6
  call void @llvm.lifetime.end.p0(i64 8, ptr %3) #6
  ret ptr %10
}

; Function Attrs: mustprogress nounwind uwtable
define linkonce_odr dso_local noundef i64 @_ZNKSt6vectorIN3igl7tinyply10PlyElementESaIS2_EE4sizeEv(ptr noundef nonnull align 8 dereferenceable(24) %0) #4 comdat align 2 {
  %2 = alloca ptr, align 8
  store ptr %0, ptr %2, align 8, !tbaa !78
  %3 = load ptr, ptr %2, align 8
  %4 = getelementptr inbounds nuw %"struct.std::_Vector_base.12", ptr %3, i32 0, i32 0
  %5 = getelementptr inbounds nuw %"struct.std::_Vector_base<igl::tinyply::PlyElement, std::allocator<igl::tinyply::PlyElement>>::_Vector_impl_data", ptr %4, i32 0, i32 1
  %6 = load ptr, ptr %5, align 8, !tbaa !82
  %7 = getelementptr inbounds nuw %"struct.std::_Vector_base.12", ptr %3, i32 0, i32 0
  %8 = getelementptr inbounds nuw %"struct.std::_Vector_base<igl::tinyply::PlyElement, std::allocator<igl::tinyply::PlyElement>>::_Vector_impl_data", ptr %7, i32 0, i32 0
  %9 = load ptr, ptr %8, align 8, !tbaa !84
  %10 = ptrtoint ptr %6 to i64
  %11 = ptrtoint ptr %9 to i64
  %12 = sub i64 %10, %11
  %13 = sdiv exact i64 %12, 64
  ret i64 %13
}

; Function Attrs: mustprogress uwtable
define dso_local void @_ZN3igl7tinyply7PlyFile11PlyFileImpl20read_header_propertyERSi(ptr noundef nonnull align 8 dereferenceable(200) %0, ptr noundef nonnull align 8 dereferenceable(16) %1) #3 align 2 personality ptr @__gxx_personality_v0 {
  %3 = alloca ptr, align 8
  %4 = alloca ptr, align 8
  %5 = alloca ptr, align 8
  %6 = alloca i32, align 4
  store ptr %0, ptr %3, align 8, !tbaa !86
  store ptr %1, ptr %4, align 8, !tbaa !58
  %7 = load ptr, ptr %3, align 8
  %8 = getelementptr inbounds nuw %"struct.igl::tinyply::PlyFile::PlyFileImpl", ptr %7, i32 0, i32 3
  %9 = call noundef i64 @_ZNKSt6vectorIN3igl7tinyply10PlyElementESaIS2_EE4sizeEv(ptr noundef nonnull align 8 dereferenceable(24) %8) #6
  %10 = icmp ne i64 %9, 0
  br i1 %10, label %18, label %11

11:                                               ; preds = %2
  %12 = call ptr @__cxa_allocate_exception(i64 16) #6
  invoke void @_ZNSt13runtime_errorC1EPKc(ptr noundef nonnull align 8 dereferenceable(16) %12, ptr noundef @.str.29)
          to label %13 unwind label %14

13:                                               ; preds = %11
  call void @__cxa_throw(ptr %12, ptr @_ZTISt13runtime_error, ptr @_ZNSt13runtime_errorD1Ev) #22
  unreachable

14:                                               ; preds = %11
  %15 = landingpad { ptr, i32 }
          cleanup
  %16 = extractvalue { ptr, i32 } %15, 0
  store ptr %16, ptr %5, align 8
  %17 = extractvalue { ptr, i32 } %15, 1
  store i32 %17, ptr %6, align 4
  call void @__cxa_free_exception(ptr %12) #6
  br label %24

18:                                               ; preds = %2
  %19 = getelementptr inbounds nuw %"struct.igl::tinyply::PlyFile::PlyFileImpl", ptr %7, i32 0, i32 3
  %20 = call noundef nonnull align 8 dereferenceable(64) ptr @_ZNSt6vectorIN3igl7tinyply10PlyElementESaIS2_EE4backEv(ptr noundef nonnull align 8 dereferenceable(24) %19) #6
  %21 = getelementptr inbounds nuw %"struct.igl::tinyply::PlyElement", ptr %20, i32 0, i32 2
  %22 = load ptr, ptr %4, align 8, !tbaa !58
  %23 = call noundef nonnull align 8 dereferenceable(48) ptr @_ZNSt6vectorIN3igl7tinyply11PlyPropertyESaIS2_EE12emplace_backIJRSiEEERS2_DpOT_(ptr noundef nonnull align 8 dereferenceable(24) %21, ptr noundef nonnull align 8 dereferenceable(16) %22)
  ret void

24:                                               ; preds = %14
  %25 = load ptr, ptr %5, align 8
  %26 = load i32, ptr %6, align 4
  %27 = insertvalue { ptr, i32 } poison, ptr %25, 0
  %28 = insertvalue { ptr, i32 } %27, i32 %26, 1
  resume { ptr, i32 } %28
}