; Function Attrs: mustprogress uwtable
define dso_local void @_ZN3igl7tinyply7PlyFile11PlyFileImpl20read_header_propertyERSi(ptr noundef nonnull readonly align 8 captures(none) dereferenceable(200) %0, ptr noundef nonnull align 8 dereferenceable(16) %1) local_unnamed_addr #1 align 2 personality ptr @__gxx_personality_v0 {
  %3 = getelementptr inbounds nuw i8, ptr %0, i64 64
  %4 = getelementptr inbounds nuw i8, ptr %0, i64 72
  %5 = load ptr, ptr %4, align 8, !tbaa !47
  %6 = load ptr, ptr %3, align 8, !tbaa !50
  %.not = icmp eq ptr %5, %6
  br i1 %.not, label %7, label %12

7:                                                ; preds = %2
  %8 = tail call ptr @__cxa_allocate_exception(i64 16) #30
  invoke void @_ZNSt13runtime_errorC1EPKc(ptr noundef nonnull align 8 dereferenceable(16) %8, ptr noundef nonnull @.str.29)
          to label %9 unwind label %10

9:                                                ; preds = %7
  tail call void @__cxa_throw(ptr nonnull %8, ptr nonnull @_ZTISt13runtime_error, ptr nonnull @_ZNSt13runtime_errorD1Ev) #33
  unreachable

10:                                               ; preds = %7
  %11 = landingpad { ptr, i32 }
          cleanup
  tail call void @__cxa_free_exception(ptr nonnull %8) #30
  resume { ptr, i32 } %11

12:                                               ; preds = %2
  %13 = getelementptr inbounds i8, ptr %5, i64 -16
  %14 = load ptr, ptr %13, align 8, !tbaa !44
  %15 = getelementptr inbounds i8, ptr %5, i64 -8
  %16 = load ptr, ptr %15, align 8, !tbaa !46
  %.not.i = icmp eq ptr %14, %16
  br i1 %.not.i, label %20, label %17

17:                                               ; preds = %12
  tail call void @_ZN3igl7tinyply11PlyPropertyC2ERSi(ptr noundef nonnull align 8 dereferenceable(48) %14, ptr noundef nonnull align 8 dereferenceable(16) %1)
  %18 = load ptr, ptr %13, align 8, !tbaa !44
  %19 = getelementptr inbounds nuw i8, ptr %18, i64 48
  store ptr %19, ptr %13, align 8, !tbaa !44
  br label %_ZNSt6vectorIN3igl7tinyply11PlyPropertyESaIS2_EE12emplace_backIJRSiEEERS2_DpOT_.exit

20:                                               ; preds = %12
  %21 = getelementptr inbounds i8, ptr %5, i64 -24
  tail call void @_ZNSt6vectorIN3igl7tinyply11PlyPropertyESaIS2_EE17_M_realloc_insertIJRSiEEEvN9__gnu_cxx17__normal_iteratorIPS2_S4_EEDpOT_(ptr noundef nonnull align 8 dereferenceable(24) %21, ptr %14, ptr noundef nonnull align 8 dereferenceable(16) %1)
  br label %_ZNSt6vectorIN3igl7tinyply11PlyPropertyESaIS2_EE12emplace_backIJRSiEEERS2_DpOT_.exit

_ZNSt6vectorIN3igl7tinyply11PlyPropertyESaIS2_EE12emplace_backIJRSiEEERS2_DpOT_.exit: ; preds = %17, %20
  ret void
}